target datalayout = "e-m:e-p270:32:32-p271:32:32-p272:64:64-i64:64-i128:128-f80:128-n8:16:32:64-S128"
target triple = "x86_64-unknown-linux-gnu"

%struct.napi_env__ = type <{ ptr, ptr, %"class.v8::Global", %"class.v8::Global.0", %"class.v8impl::RefTracker", %"class.v8impl::RefTracker", %"class.std::unordered_set", %struct.napi_extended_error_info, i32, i32, i32, [4 x i8], ptr, i32, i8, [3 x i8] }>
%"class.v8::Global" = type { %"class.v8::PersistentBase" }
%"class.v8::PersistentBase" = type { %"class.v8::IndirectHandleBase" }
%"class.v8::IndirectHandleBase" = type { ptr }
%"class.v8::Global.0" = type { %"class.v8::PersistentBase.1" }
%"class.v8::PersistentBase.1" = type { %"class.v8::IndirectHandleBase" }
%"class.v8impl::RefTracker" = type { ptr, ptr, ptr }
%"class.std::unordered_set" = type { %"class.std::_Hashtable" }
%"class.std::_Hashtable" = type { ptr, i64, %"struct.std::__detail::_Hash_node_base", i64, %"struct.std::__detail::_Prime_rehash_policy", ptr }
%"struct.std::__detail::_Hash_node_base" = type { ptr }
%"struct.std::__detail::_Prime_rehash_policy" = type { float, i64 }
%struct.napi_extended_error_info = type { ptr, ptr, i32, i32 }
%"class.v8::Local" = type { %"class.v8::LocalBase" }
%"class.v8::LocalBase" = type { %"class.v8::IndirectHandleBase" }
%"class.v8::Local.6" = type { %"class.v8::LocalBase.7" }
%"class.v8::LocalBase.7" = type { %"class.v8::IndirectHandleBase" }
%"class.v8::MaybeLocal" = type { %"class.v8::Local.6" }
%class.anon.33 = type { ptr, ptr }

; Function Attrs: mustprogress nounwind uwtable
define linkonce_odr dso_local noundef i32 @_Z21napi_clear_last_errorP10napi_env__(ptr noundef %env) #4 comdat {
entry:
  %env.addr = alloca ptr, align 8
  store ptr %env, ptr %env.addr, align 8
  %0 = load ptr, ptr %env.addr, align 8
  %last_error = getelementptr inbounds %struct.napi_env__, ptr %0, i32 0, i32 7
  %error_code = getelementptr inbounds %struct.napi_extended_error_info, ptr %last_error, i32 0, i32 3
  store i32 0, ptr %error_code, align 4
  %1 = load ptr, ptr %env.addr, align 8
  %last_error1 = getelementptr inbounds %struct.napi_env__, ptr %1, i32 0, i32 7
  %engine_error_code = getelementptr inbounds %struct.napi_extended_error_info, ptr %last_error1, i32 0, i32 2
  store i32 0, ptr %engine_error_code, align 8
  %2 = load ptr, ptr %env.addr, align 8
  %last_error2 = getelementptr inbounds %struct.napi_env__, ptr %2, i32 0, i32 7
  %engine_reserved = getelementptr inbounds %struct.napi_extended_error_info, ptr %last_error2, i32 0, i32 1
  store ptr null, ptr %engine_reserved, align 8
  %3 = load ptr, ptr %env.addr, align 8
  %last_error3 = getelementptr inbounds %struct.napi_env__, ptr %3, i32 0, i32 7
  %error_message = getelementptr inbounds %struct.napi_extended_error_info, ptr %last_error3, i32 0, i32 0
  store ptr null, ptr %error_message, align 8
  ret i32 0
}

; Function Attrs: mustprogress nounwind uwtable
define linkonce_odr dso_local noundef ptr @_ZN6v8impl23JsValueFromV8LocalValueEN2v85LocalINS0_5ValueEEE(ptr %local.coerce) #4 comdat {
entry:
  %slot.addr.i = alloca ptr, align 8
  %this.addr.i.i3 = alloca ptr, align 8
  %this.addr.i4 = alloca ptr, align 8
  %this.addr.i.i = alloca ptr, align 8
  %this.addr.i = alloca ptr, align 8
  %local = alloca %"class.v8::Local", align 8
  %coerce.dive = getelementptr inbounds %"class.v8::Local", ptr %local, i32 0, i32 0
  %coerce.dive1 = getelementptr inbounds %"class.v8::LocalBase", ptr %coerce.dive, i32 0, i32 0
  %coerce.dive2 = getelementptr inbounds %"class.v8::IndirectHandleBase", ptr %coerce.dive1, i32 0, i32 0
  store ptr %local.coerce, ptr %coerce.dive2, align 8
  store ptr %local, ptr %this.addr.i, align 8
  %this1.i = load ptr, ptr %this.addr.i, align 8
  store ptr %this1.i, ptr %this.addr.i.i, align 8
  %this1.i.i = load ptr, ptr %this.addr.i.i, align 8
  store ptr %this1.i.i, ptr %this.addr.i4, align 8
  %this1.i5 = load ptr, ptr %this.addr.i4, align 8
  store ptr %this1.i5, ptr %this.addr.i.i3, align 8
  %this1.i.i6 = load ptr, ptr %this.addr.i.i3, align 8
  %0 = load ptr, ptr %this1.i.i6, align 8
  store ptr %0, ptr %slot.addr.i, align 8
  %1 = load ptr, ptr %slot.addr.i, align 8
  ret ptr %1
}

; Function Attrs: mustprogress nounwind uwtable
define internal ptr @"_ZZ24napi_create_string_utf16ENK3$_0clEPN2v87IsolateE"(ptr noundef nonnull align 8 dereferenceable(16) %this, ptr noundef %isolate) #4 align 2 {
entry:
  %retval = alloca %"class.v8::MaybeLocal", align 8
  %this.addr = alloca ptr, align 8
  %isolate.addr = alloca ptr, align 8
  store ptr %this, ptr %this.addr, align 8
  store ptr %isolate, ptr %isolate.addr, align 8
  %this1 = load ptr, ptr %this.addr, align 8
  %0 = load ptr, ptr %isolate.addr, align 8
  %1 = getelementptr inbounds %class.anon.33, ptr %this1, i32 0, i32 0
  %2 = load ptr, ptr %1, align 8
  %3 = load ptr, ptr %2, align 8
  %4 = getelementptr inbounds %class.anon.33, ptr %this1, i32 0, i32 1
  %5 = load ptr, ptr %4, align 8
  %6 = load i64, ptr %5, align 8
  %conv = trunc i64 %6 to i32
  %call = call ptr @_ZN2v86String14NewFromTwoByteEPNS_7IsolateEPKtNS_13NewStringTypeEi(ptr noundef %0, ptr noundef %3, i32 noundef 0, i32 noundef %conv)
  %coerce.dive = getelementptr inbounds %"class.v8::MaybeLocal", ptr %retval, i32 0, i32 0
  %coerce.dive2 = getelementptr inbounds %"class.v8::Local.6", ptr %coerce.dive, i32 0, i32 0
  %coerce.dive3 = getelementptr inbounds %"class.v8::LocalBase.7", ptr %coerce.dive2, i32 0, i32 0
  %coerce.dive4 = getelementptr inbounds %"class.v8::IndirectHandleBase", ptr %coerce.dive3, i32 0, i32 0
  store ptr %call, ptr %coerce.dive4, align 8
  %coerce.dive5 = getelementptr inbounds %"class.v8::MaybeLocal", ptr %retval, i32 0, i32 0
  %coerce.dive6 = getelementptr inbounds %"class.v8::Local.6", ptr %coerce.dive5, i32 0, i32 0
  %coerce.dive7 = getelementptr inbounds %"class.v8::LocalBase.7", ptr %coerce.dive6, i32 0, i32 0
  %coerce.dive8 = getelementptr inbounds %"class.v8::IndirectHandleBase", ptr %coerce.dive7, i32 0, i32 0
  %7 = load ptr, ptr %coerce.dive8, align 8
  ret ptr %7
}

; Function Attrs: mustprogress nounwind uwtable
define linkonce_odr dso_local noundef i32 @_Z19napi_set_last_errorP10napi_env__11napi_statusjPv(ptr noundef %env, i32 noundef %error_code, i32 noundef %engine_error_code, ptr noundef %engine_reserved) #4 comdat {
entry:
  %env.addr = alloca ptr, align 8
  %error_code.addr = alloca i32, align 4
  %engine_error_code.addr = alloca i32, align 4
  %engine_reserved.addr = alloca ptr, align 8
  store ptr %env, ptr %env.addr, align 8
  store i32 %error_code, ptr %error_code.addr, align 4
  store i32 %engine_error_code, ptr %engine_error_code.addr, align 4
  store ptr %engine_reserved, ptr %engine_reserved.addr, align 8
  %0 = load i32, ptr %error_code.addr, align 4
  %1 = load ptr, ptr %env.addr, align 8
  %last_error = getelementptr inbounds %struct.napi_env__, ptr %1, i32 0, i32 7
  %error_code1 = getelementptr inbounds %struct.napi_extended_error_info, ptr %last_error, i32 0, i32 3
  store i32 %0, ptr %error_code1, align 4
  %2 = load i32, ptr %engine_error_code.addr, align 4
  %3 = load ptr, ptr %env.addr, align 8
  %last_error2 = getelementptr inbounds %struct.napi_env__, ptr %3, i32 0, i32 7
  %engine_error_code3 = getelementptr inbounds %struct.napi_extended_error_info, ptr %last_error2, i32 0, i32 2
  store i32 %2, ptr %engine_error_code3, align 8
  %4 = load ptr, ptr %engine_reserved.addr, align 8
  %5 = load ptr, ptr %env.addr, align 8
  %last_error4 = getelementptr inbounds %struct.napi_env__, ptr %5, i32 0, i32 7
  %engine_reserved5 = getelementptr inbounds %struct.napi_extended_error_info, ptr %last_error4, i32 0, i32 1
  store ptr %4, ptr %engine_reserved5, align 8
  %6 = load i32, ptr %error_code.addr, align 4
  ret i32 %6
}

; Function Attrs: mustprogress nounwind uwtable
define linkonce_odr dso_local void @_ZN10napi_env__13CheckGCAccessEv(ptr noundef nonnull align 8 dereferenceable(189) %this) #4 comdat align 2 {
entry:
  %this.addr = alloca ptr, align 8
  store ptr %this, ptr %this.addr, align 8
  %this1 = load ptr, ptr %this.addr, align 8
  %module_api_version = getelementptr inbounds %struct.napi_env__, ptr %this1, i32 0, i32 13
  %0 = load i32, ptr %module_api_version, align 8
  %cmp = icmp eq i32 %0, 2147483647
  br i1 %cmp, label %land.lhs.true, label %if.end

land.lhs.true:                                    ; preds = %entry
  %in_gc_finalizer = getelementptr inbounds %struct.napi_env__, ptr %this1, i32 0, i32 14
  %1 = load i8, ptr %in_gc_finalizer, align 4
  %tobool = trunc i8 %1 to i1
  br i1 %tobool, label %if.then, label %if.end

if.then:                                          ; preds = %land.lhs.true
  call void @_ZN6v8impl12OnFatalErrorEPKcS1_(ptr noundef null, ptr noundef @.str.41) #17
  unreachable

if.end:                                           ; preds = %land.lhs.true, %entry
  ret void
}

; Function Attrs: mustprogress nounwind uwtable
define internal noundef i32 @"_ZN6v8impl12_GLOBAL__N_19NewStringIDsZ24napi_create_string_utf16E3$_0EE11napi_statusP10napi_env__PKT_mPP12napi_value__T0_"(ptr noundef %env, ptr noundef %str, i64 noundef %length, ptr noundef %result, ptr %string_maker.coerce0, ptr %string_maker.coerce1) #4 {
entry:
  %this.addr.i55 = alloca ptr, align 8
  %other.addr.i = alloca ptr, align 8
  %that.i = alloca %"class.v8::Local.6", align 8
  %this.addr.i54 = alloca ptr, align 8
  %this.addr.i.i.i = alloca ptr, align 8
  %this.addr.i.i50 = alloca ptr, align 8
  %retval.i = alloca %"class.v8::Local.6", align 8
  %this.addr.i51 = alloca ptr, align 8
  %this.addr.i.i = alloca ptr, align 8
  %this.addr.i = alloca ptr, align 8
  %retval = alloca i32, align 4
  %string_maker = alloca %class.anon.33, align 8
  %env.addr = alloca ptr, align 8
  %str.addr = alloca ptr, align 8
  %length.addr = alloca i64, align 8
  %result.addr = alloca ptr, align 8
  %isolate = alloca ptr, align 8
  %str_maybe = alloca %"class.v8::MaybeLocal", align 8
  %agg.tmp = alloca %"class.v8::Local", align 8
  %agg.tmp37 = alloca %"class.v8::Local.6", align 8
  %0 = getelementptr inbounds { ptr, ptr }, ptr %string_maker, i32 0, i32 0
  store ptr %string_maker.coerce0, ptr %0, align 8
  %1 = getelementptr inbounds { ptr, ptr }, ptr %string_maker, i32 0, i32 1
  store ptr %string_maker.coerce1, ptr %1, align 8
  store ptr %env, ptr %env.addr, align 8
  store ptr %str, ptr %str.addr, align 8
  store i64 %length, ptr %length.addr, align 8
  store ptr %result, ptr %result.addr, align 8
  br label %do.body

do.body:                                          ; preds = %entry
  br label %do.body1

do.body1:                                         ; preds = %do.body
  br label %do.body2

do.body2:                                         ; preds = %do.body1
  %2 = load ptr, ptr %env.addr, align 8
  %cmp = icmp eq ptr %2, null
  br i1 %cmp, label %if.then, label %if.end

if.then:                                          ; preds = %do.body2
  store i32 1, ptr %retval, align 4
  br label %return

if.end:                                           ; preds = %do.body2
  br label %do.end

do.end:                                           ; preds = %if.end
  %3 = load ptr, ptr %env.addr, align 8
  call void @_ZN10napi_env__13CheckGCAccessEv(ptr noundef nonnull align 8 dereferenceable(189) %3)
  br label %do.end3

do.end3:                                          ; preds = %do.end
  %4 = load i64, ptr %length.addr, align 8
  %cmp4 = icmp ugt i64 %4, 0
  br i1 %cmp4, label %if.then5, label %if.end11

if.then5:                                         ; preds = %do.end3
  br label %do.body6

do.body6:                                         ; preds = %if.then5
  %5 = load ptr, ptr %str.addr, align 8
  %cmp7 = icmp ne ptr %5, null
  br i1 %cmp7, label %if.end9, label %if.then8

if.then8:                                         ; preds = %do.body6
  %6 = load ptr, ptr %env.addr, align 8
  %call = call noundef i32 @_Z19napi_set_last_errorP10napi_env__11napi_statusjPv(ptr noundef %6, i32 noundef 1, i32 noundef 0, ptr noundef null)
  store i32 %call, ptr %retval, align 4
  br label %return

if.end9:                                          ; preds = %do.body6
  br label %do.end10

do.end10:                                         ; preds = %if.end9
  br label %if.end11

if.end11:                                         ; preds = %do.end10, %do.end3
  br label %do.body12

do.body12:                                        ; preds = %if.end11
  %7 = load ptr, ptr %result.addr, align 8
  %cmp13 = icmp ne ptr %7, null
  br i1 %cmp13, label %if.end16, label %if.then14

if.then14:                                        ; preds = %do.body12
  %8 = load ptr, ptr %env.addr, align 8
  %call15 = call noundef i32 @_Z19napi_set_last_errorP10napi_env__11napi_statusjPv(ptr noundef %8, i32 noundef 1, i32 noundef 0, ptr noundef null)
  store i32 %call15, ptr %retval, align 4
  br label %return

if.end16:                                         ; preds = %do.body12
  br label %do.end17

do.end17:                                         ; preds = %if.end16
  br label %do.body18

do.body18:                                        ; preds = %do.end17
  %9 = load i64, ptr %length.addr, align 8
  %cmp19 = icmp eq i64 %9, -1
  br i1 %cmp19, label %if.end23, label %lor.lhs.false

lor.lhs.false:                                    ; preds = %do.body18
  %10 = load i64, ptr %length.addr, align 8
  %cmp20 = icmp ule i64 %10, 2147483647
  br i1 %cmp20, label %if.end23, label %if.then21

if.then21:                                        ; preds = %lor.lhs.false
  %11 = load ptr, ptr %env.addr, align 8
  %call22 = call noundef i32 @_Z19napi_set_last_errorP10napi_env__11napi_statusjPv(ptr noundef %11, i32 noundef 1, i32 noundef 0, ptr noundef null)
  store i32 %call22, ptr %retval, align 4
  br label %return

if.end23:                                         ; preds = %lor.lhs.false, %do.body18
  br label %do.end24

do.end24:                                         ; preds = %if.end23
  br label %do.end25

do.end25:                                         ; preds = %do.end24
  %12 = load ptr, ptr %env.addr, align 8
  %isolate26 = getelementptr inbounds %struct.napi_env__, ptr %12, i32 0, i32 1
  %13 = load ptr, ptr %isolate26, align 8
  store ptr %13, ptr %isolate, align 8
  %14 = load ptr, ptr %isolate, align 8
  %call27 = call ptr @"_ZZ24napi_create_string_utf16ENK3$_0clEPN2v87IsolateE"(ptr noundef nonnull align 8 dereferenceable(16) %string_maker, ptr noundef %14)
  %coerce.dive = getelementptr inbounds %"class.v8::MaybeLocal", ptr %str_maybe, i32 0, i32 0
  %coerce.dive28 = getelementptr inbounds %"class.v8::Local.6", ptr %coerce.dive, i32 0, i32 0
  %coerce.dive29 = getelementptr inbounds %"class.v8::LocalBase.7", ptr %coerce.dive28, i32 0, i32 0
  %coerce.dive30 = getelementptr inbounds %"class.v8::IndirectHandleBase", ptr %coerce.dive29, i32 0, i32 0
  store ptr %call27, ptr %coerce.dive30, align 8
  br label %do.body31

do.body31:                                        ; preds = %do.end25
  store ptr %str_maybe, ptr %this.addr.i, align 8
  %this1.i = load ptr, ptr %this.addr.i, align 8
  store ptr %this1.i, ptr %this.addr.i.i, align 8
  %this1.i.i = load ptr, ptr %this.addr.i.i, align 8
  %15 = load ptr, ptr %this1.i.i, align 8
  %cmp.i.i = icmp eq ptr %15, null
  br i1 %cmp.i.i, label %if.then33, label %if.end35

if.then33:                                        ; preds = %do.body31
  %16 = load ptr, ptr %env.addr, align 8
  %call34 = call noundef i32 @_Z19napi_set_last_errorP10napi_env__11napi_statusjPv(ptr noundef %16, i32 noundef 9, i32 noundef 0, ptr noundef null)
  store i32 %call34, ptr %retval, align 4
  br label %return

if.end35:                                         ; preds = %do.body31
  br label %do.end36

do.end36:                                         ; preds = %if.end35
  store ptr %str_maybe, ptr %this.addr.i51, align 8
  %this1.i52 = load ptr, ptr %this.addr.i51, align 8
  store ptr %this1.i52, ptr %this.addr.i.i50, align 8
  %this1.i.i53 = load ptr, ptr %this.addr.i.i50, align 8
  store ptr %this1.i.i53, ptr %this.addr.i.i.i, align 8
  %this1.i.i.i = load ptr, ptr %this.addr.i.i.i, align 8
  %17 = load ptr, ptr %this1.i.i.i, align 8
  %cmp.i.i.i = icmp eq ptr %17, null
  br i1 %cmp.i.i.i, label %if.then.i, label %_ZN2v810MaybeLocalINS_6StringEE14ToLocalCheckedEv.exit

if.then.i:                                        ; preds = %do.end36
  call void @_ZN2v812api_internal12ToLocalEmptyEv() #3
  br label %_ZN2v810MaybeLocalINS_6StringEE14ToLocalCheckedEv.exit

_ZN2v810MaybeLocalINS_6StringEE14ToLocalCheckedEv.exit: ; preds = %if.then.i, %do.end36
  call void @llvm.memcpy.p0.p0.i64(ptr align 8 %retval.i, ptr align 8 %this1.i52, i64 8, i1 false)
  %18 = load ptr, ptr %retval.i, align 8
  %coerce.dive39 = getelementptr inbounds %"class.v8::Local.6", ptr %agg.tmp37, i32 0, i32 0
  %coerce.dive40 = getelementptr inbounds %"class.v8::LocalBase.7", ptr %coerce.dive39, i32 0, i32 0
  %coerce.dive41 = getelementptr inbounds %"class.v8::IndirectHandleBase", ptr %coerce.dive40, i32 0, i32 0
  store ptr %18, ptr %coerce.dive41, align 8
  %coerce.dive42 = getelementptr inbounds %"class.v8::Local.6", ptr %agg.tmp37, i32 0, i32 0
  %coerce.dive43 = getelementptr inbounds %"class.v8::LocalBase.7", ptr %coerce.dive42, i32 0, i32 0
  %coerce.dive44 = getelementptr inbounds %"class.v8::IndirectHandleBase", ptr %coerce.dive43, i32 0, i32 0
  %19 = load ptr, ptr %coerce.dive44, align 8
  store ptr %19, ptr %that.i, align 8
  store ptr %agg.tmp, ptr %this.addr.i54, align 8
  %this3.i = load ptr, ptr %this.addr.i54, align 8
  store ptr %this3.i, ptr %this.addr.i55, align 8
  store ptr %that.i, ptr %other.addr.i, align 8
  %this1.i56 = load ptr, ptr %this.addr.i55, align 8
  %20 = load ptr, ptr %other.addr.i, align 8
  call void @llvm.memcpy.p0.p0.i64(ptr align 8 %this1.i56, ptr align 8 %20, i64 8, i1 false)
  %coerce.dive45 = getelementptr inbounds %"class.v8::Local", ptr %agg.tmp, i32 0, i32 0
  %coerce.dive46 = getelementptr inbounds %"class.v8::LocalBase", ptr %coerce.dive45, i32 0, i32 0
  %coerce.dive47 = getelementptr inbounds %"class.v8::IndirectHandleBase", ptr %coerce.dive46, i32 0, i32 0
  %21 = load ptr, ptr %coerce.dive47, align 8
  %call48 = call noundef ptr @_ZN6v8impl23JsValueFromV8LocalValueEN2v85LocalINS0_5ValueEEE(ptr %21)
  %22 = load ptr, ptr %result.addr, align 8
  store ptr %call48, ptr %22, align 8
  %23 = load ptr, ptr %env.addr, align 8
  %call49 = call noundef i32 @_Z21napi_clear_last_errorP10napi_env__(ptr noundef %23)
  store i32 %call49, ptr %retval, align 4
  br label %return

return:                                           ; preds = %_ZN2v810MaybeLocalINS_6StringEE14ToLocalCheckedEv.exit, %if.then33, %if.then21, %if.then14, %if.then8, %if.then
  %24 = load i32, ptr %retval, align 4
  ret i32 %24
}

; Function Attrs: mustprogress nounwind uwtable
define dso_local i32 @napi_create_string_utf16(ptr noundef %env, ptr noundef %str, i64 noundef %length, ptr noundef %result) #4 {
entry:
  %env.addr = alloca ptr, align 8
  %str.addr = alloca ptr, align 8
  %length.addr = alloca i64, align 8
  %result.addr = alloca ptr, align 8
  %agg.tmp = alloca %class.anon.33, align 8
  store ptr %env, ptr %env.addr, align 8
  store ptr %str, ptr %str.addr, align 8
  store i64 %length, ptr %length.addr, align 8
  store ptr %result, ptr %result.addr, align 8
  %0 = load ptr, ptr %env.addr, align 8
  %1 = load ptr, ptr %str.addr, align 8
  %2 = load i64, ptr %length.addr, align 8
  %3 = load ptr, ptr %result.addr, align 8
  %4 = getelementptr inbounds %class.anon.33, ptr %agg.tmp, i32 0, i32 0
  store ptr %str.addr, ptr %4, align 8
  %5 = getelementptr inbounds %class.anon.33, ptr %agg.tmp, i32 0, i32 1
  store ptr %length.addr, ptr %5, align 8
  %6 = getelementptr inbounds { ptr, ptr }, ptr %agg.tmp, i32 0, i32 0
  %7 = load ptr, ptr %6, align 8
  %8 = getelementptr inbounds { ptr, ptr }, ptr %agg.tmp, i32 0, i32 1
  %9 = load ptr, ptr %8, align 8
  %call = call noundef i32 @"_ZN6v8impl12_GLOBAL__N_19NewStringIDsZ24napi_create_string_utf16E3$_0EE11napi_statusP10napi_env__PKT_mPP12napi_value__T0_"(ptr noundef %0, ptr noundef %1, i64 noundef %2, ptr noundef %3, ptr %7, ptr %9)
  ret i32 %call
}