; Function Attrs: mustprogress nounwind uwtable
define dso_local noundef i32 @napi_create_string_utf16(ptr noundef %env, ptr noundef %str, i64 noundef %length, ptr noundef writeonly %result) local_unnamed_addr #3 {
entry:
  %cmp.i = icmp eq ptr %env, null
  br i1 %cmp.i, label %"_ZN6v8impl12_GLOBAL__N_19NewStringIDsZ24napi_create_string_utf16E3$_0EE11napi_statusP10napi_env__PKT_mPP12napi_value__T0_.exit", label %do.end.i

do.end.i:                                         ; preds = %entry
  %module_api_version.i.i = getelementptr inbounds i8, ptr %env, i64 184
  %0 = load i32, ptr %module_api_version.i.i, align 8
  %cmp.i.i = icmp eq i32 %0, 2147483647
  br i1 %cmp.i.i, label %land.lhs.true.i.i, label %_ZN10napi_env__13CheckGCAccessEv.exit.i

land.lhs.true.i.i:                                ; preds = %do.end.i
  %in_gc_finalizer.i.i = getelementptr inbounds i8, ptr %env, i64 188
  %1 = load i8, ptr %in_gc_finalizer.i.i, align 4
  %2 = and i8 %1, 1
  %tobool.not.i.i = icmp eq i8 %2, 0
  br i1 %tobool.not.i.i, label %_ZN10napi_env__13CheckGCAccessEv.exit.i, label %if.then.i.i

if.then.i.i:                                      ; preds = %land.lhs.true.i.i
  tail call void @_ZN6v8impl12OnFatalErrorEPKcS1_(ptr noundef null, ptr noundef nonnull @.str.41) #28
  unreachable

_ZN10napi_env__13CheckGCAccessEv.exit.i:          ; preds = %land.lhs.true.i.i, %do.end.i
  %cmp4.i = icmp eq i64 %length, 0
  %cmp7.i = icmp ne ptr %str, null
  %or.cond1.i = or i1 %cmp7.i, %cmp4.i
  br i1 %or.cond1.i, label %do.body12.i, label %if.then8.i

if.then8.i:                                       ; preds = %_ZN10napi_env__13CheckGCAccessEv.exit.i
  %error_code1.i.i = getelementptr inbounds i8, ptr %env, i64 156
  store i32 1, ptr %error_code1.i.i, align 4
  %engine_error_code3.i.i = getelementptr inbounds i8, ptr %env, i64 152
  store i32 0, ptr %engine_error_code3.i.i, align 8
  %engine_reserved5.i.i = getelementptr inbounds i8, ptr %env, i64 144
  store ptr null, ptr %engine_reserved5.i.i, align 8
  br label %"_ZN6v8impl12_GLOBAL__N_19NewStringIDsZ24napi_create_string_utf16E3$_0EE11napi_statusP10napi_env__PKT_mPP12napi_value__T0_.exit"

do.body12.i:                                      ; preds = %_ZN10napi_env__13CheckGCAccessEv.exit.i
  %cmp13.not.i = icmp eq ptr %result, null
  br i1 %cmp13.not.i, label %if.then14.i, label %do.body18.i

if.then14.i:                                      ; preds = %do.body12.i
  %error_code1.i14.i = getelementptr inbounds i8, ptr %env, i64 156
  store i32 1, ptr %error_code1.i14.i, align 4
  %engine_error_code3.i15.i = getelementptr inbounds i8, ptr %env, i64 152
  store i32 0, ptr %engine_error_code3.i15.i, align 8
  %engine_reserved5.i16.i = getelementptr inbounds i8, ptr %env, i64 144
  store ptr null, ptr %engine_reserved5.i16.i, align 8
  br label %"_ZN6v8impl12_GLOBAL__N_19NewStringIDsZ24napi_create_string_utf16E3$_0EE11napi_statusP10napi_env__PKT_mPP12napi_value__T0_.exit"

do.body18.i:                                      ; preds = %do.body12.i
  %3 = add i64 %length, 1
  %or.cond.i = icmp ult i64 %3, 2147483649
  br i1 %or.cond.i, label %do.end25.i, label %if.then21.i

if.then21.i:                                      ; preds = %do.body18.i
  %error_code1.i17.i = getelementptr inbounds i8, ptr %env, i64 156
  store i32 1, ptr %error_code1.i17.i, align 4
  %engine_error_code3.i18.i = getelementptr inbounds i8, ptr %env, i64 152
  store i32 0, ptr %engine_error_code3.i18.i, align 8
  %engine_reserved5.i19.i = getelementptr inbounds i8, ptr %env, i64 144
  store ptr null, ptr %engine_reserved5.i19.i, align 8
  br label %"_ZN6v8impl12_GLOBAL__N_19NewStringIDsZ24napi_create_string_utf16E3$_0EE11napi_statusP10napi_env__PKT_mPP12napi_value__T0_.exit"

do.end25.i:                                       ; preds = %do.body18.i
  %isolate26.i = getelementptr inbounds i8, ptr %env, i64 8
  %4 = load ptr, ptr %isolate26.i, align 8
  %conv.i.i = trunc i64 %length to i32
  %call.i.i = tail call ptr @_ZN2v86String14NewFromTwoByteEPNS_7IsolateEPKtNS_13NewStringTypeEi(ptr noundef %4, ptr noundef %str, i32 noundef 0, i32 noundef %conv.i.i) #24
  %cmp.i.i.i = icmp eq ptr %call.i.i, null
  br i1 %cmp.i.i.i, label %if.then33.i, label %_ZN2v810MaybeLocalINS_6StringEE14ToLocalCheckedEv.exit.i

if.then33.i:                                      ; preds = %do.end25.i
  %error_code1.i20.i = getelementptr inbounds i8, ptr %env, i64 156
  store i32 9, ptr %error_code1.i20.i, align 4
  %engine_error_code3.i21.i = getelementptr inbounds i8, ptr %env, i64 152
  store i32 0, ptr %engine_error_code3.i21.i, align 8
  %engine_reserved5.i22.i = getelementptr inbounds i8, ptr %env, i64 144
  store ptr null, ptr %engine_reserved5.i22.i, align 8
  br label %"_ZN6v8impl12_GLOBAL__N_19NewStringIDsZ24napi_create_string_utf16E3$_0EE11napi_statusP10napi_env__PKT_mPP12napi_value__T0_.exit"

_ZN2v810MaybeLocalINS_6StringEE14ToLocalCheckedEv.exit.i: ; preds = %do.end25.i
  store ptr %call.i.i, ptr %result, align 8
  %last_error.i.i = getelementptr inbounds i8, ptr %env, i64 136
  tail call void @llvm.memset.p0.i64(ptr noundef nonnull align 8 dereferenceable(24) %last_error.i.i, i8 0, i64 24, i1 false)
  br label %"_ZN6v8impl12_GLOBAL__N_19NewStringIDsZ24napi_create_string_utf16E3$_0EE11napi_statusP10napi_env__PKT_mPP12napi_value__T0_.exit"

"_ZN6v8impl12_GLOBAL__N_19NewStringIDsZ24napi_create_string_utf16E3$_0EE11napi_statusP10napi_env__PKT_mPP12napi_value__T0_.exit": ; preds = %entry, %if.then8.i, %if.then14.i, %if.then21.i, %if.then33.i, %_ZN2v810MaybeLocalINS_6StringEE14ToLocalCheckedEv.exit.i
  %retval.0.i = phi i32 [ 9, %if.then33.i ], [ 0, %_ZN2v810MaybeLocalINS_6StringEE14ToLocalCheckedEv.exit.i ], [ 1, %if.then21.i ], [ 1, %if.then14.i ], [ 1, %if.then8.i ], [ 1, %entry ]
  ret i32 %retval.0.i
}